target datalayout = "e-m:e-p270:32:32-p271:32:32-p272:64:64-i64:64-i128:128-f80:128-n8:16:32:64-S128"
target triple = "x86_64-pc-linux-gnu"

%struct.SurfaceDataRasInfo = type { %struct.SurfaceDataBounds, ptr, i32, i32, i32, i32, ptr, ptr, ptr, ptr, ptr, ptr, i32, %union.anon.0 }
%struct.SurfaceDataBounds = type { i32, i32, i32, i32 }
%union.anon.0 = type { ptr, [56 x i8] }

@mul8table = external global [256 x [256 x i8]], align 16

; Function Attrs: nounwind uwtable
define hidden void @ByteIndexedToIntArgbPreScaleConvert(ptr noundef %0, ptr noundef %1, i32 noundef %2, i32 noundef %3, i32 noundef %4, i32 noundef %5, i32 noundef %6, i32 noundef %7, i32 noundef %8, ptr noundef %9, ptr noundef %10, ptr noundef %11, ptr noundef %12) #1 {
  %14 = alloca ptr, align 8
  %15 = alloca ptr, align 8
  %16 = alloca i32, align 4
  %17 = alloca i32, align 4
  %18 = alloca i32, align 4
  %19 = alloca i32, align 4
  %20 = alloca i32, align 4
  %21 = alloca i32, align 4
  %22 = alloca i32, align 4
  %23 = alloca ptr, align 8
  %24 = alloca ptr, align 8
  %25 = alloca ptr, align 8
  %26 = alloca ptr, align 8
  %27 = alloca ptr, align 8
  %28 = alloca ptr, align 8
  %29 = alloca ptr, align 8
  %30 = alloca i32, align 4
  %31 = alloca i32, align 4
  %32 = alloca i32, align 4
  %33 = alloca i32, align 4
  %34 = alloca i32, align 4
  %35 = alloca i32, align 4
  %36 = alloca i32, align 4
  %37 = alloca i32, align 4
  %38 = alloca i32, align 4
  %39 = alloca i32, align 4
  store ptr %0, ptr %14, align 8
  store ptr %1, ptr %15, align 8
  store i32 %2, ptr %16, align 4
  store i32 %3, ptr %17, align 4
  store i32 %4, ptr %18, align 4
  store i32 %5, ptr %19, align 4
  store i32 %6, ptr %20, align 4
  store i32 %7, ptr %21, align 4
  store i32 %8, ptr %22, align 4
  store ptr %9, ptr %23, align 8
  store ptr %10, ptr %24, align 8
  store ptr %11, ptr %25, align 8
  store ptr %12, ptr %26, align 8
  %40 = load ptr, ptr %23, align 8
  %41 = getelementptr inbounds %struct.SurfaceDataRasInfo, ptr %40, i32 0, i32 6
  %42 = load ptr, ptr %41, align 8
  store ptr %42, ptr %27, align 8
  br label %43

43:                                               ; preds = %13
  %44 = load ptr, ptr %15, align 8
  store ptr %44, ptr %29, align 8
  %45 = load ptr, ptr %23, align 8
  %46 = getelementptr inbounds %struct.SurfaceDataRasInfo, ptr %45, i32 0, i32 4
  %47 = load i32, ptr %46, align 8
  store i32 %47, ptr %30, align 4
  %48 = load ptr, ptr %24, align 8
  %49 = getelementptr inbounds %struct.SurfaceDataRasInfo, ptr %48, i32 0, i32 4
  %50 = load i32, ptr %49, align 8
  store i32 %50, ptr %31, align 4
  %51 = load i32, ptr %16, align 4
  %52 = mul i32 %51, 4
  %53 = load i32, ptr %31, align 4
  %54 = sub i32 %53, %52
  store i32 %54, ptr %31, align 4
  br label %55

55:                                               ; preds = %166, %43
  %56 = load i32, ptr %16, align 4
  store i32 %56, ptr %32, align 4
  %57 = load i32, ptr %18, align 4
  store i32 %57, ptr %33, align 4
  %58 = load ptr, ptr %14, align 8
  %59 = ptrtoint ptr %58 to i64
  %60 = load i32, ptr %19, align 4
  %61 = load i32, ptr %22, align 4
  %62 = ashr i32 %60, %61
  %63 = sext i32 %62 to i64
  %64 = load i32, ptr %30, align 4
  %65 = sext i32 %64 to i64
  %66 = mul nsw i64 %63, %65
  %67 = add nsw i64 %59, %66
  %68 = inttoptr i64 %67 to ptr
  store ptr %68, ptr %28, align 8
  br label %69

69:                                               ; preds = %152, %55
  %70 = load i32, ptr %33, align 4
  %71 = load i32, ptr %22, align 4
  %72 = ashr i32 %70, %71
  store i32 %72, ptr %34, align 4
  br label %73

73:                                               ; preds = %69
  %74 = load ptr, ptr %27, align 8
  %75 = load ptr, ptr %28, align 8
  %76 = load i32, ptr %34, align 4
  %77 = sext i32 %76 to i64
  %78 = getelementptr inbounds i8, ptr %75, i64 %77
  %79 = load i8, ptr %78, align 1
  %80 = zext i8 %79 to i64
  %81 = getelementptr inbounds i32, ptr %74, i64 %80
  %82 = load i32, ptr %81, align 4
  store i32 %82, ptr %35, align 4
  br label %83

83:                                               ; preds = %73
  %84 = load i32, ptr %35, align 4
  %85 = ashr i32 %84, 24
  %86 = add nsw i32 %85, 1
  %87 = icmp eq i32 %86, 0
  br i1 %87, label %88, label %92

88:                                               ; preds = %83
  %89 = load i32, ptr %35, align 4
  %90 = load ptr, ptr %29, align 8
  %91 = getelementptr inbounds i32, ptr %90, i64 0
  store i32 %89, ptr %91, align 4
  br label %142

92:                                               ; preds = %83
  br label %93

93:                                               ; preds = %92
  %94 = load i32, ptr %35, align 4
  %95 = and i32 %94, 255
  store i32 %95, ptr %39, align 4
  %96 = load i32, ptr %35, align 4
  %97 = ashr i32 %96, 8
  %98 = and i32 %97, 255
  store i32 %98, ptr %38, align 4
  %99 = load i32, ptr %35, align 4
  %100 = ashr i32 %99, 16
  %101 = and i32 %100, 255
  store i32 %101, ptr %37, align 4
  %102 = load i32, ptr %35, align 4
  %103 = ashr i32 %102, 24
  %104 = and i32 %103, 255
  store i32 %104, ptr %36, align 4
  br label %105

105:                                              ; preds = %93
  %106 = load i32, ptr %36, align 4
  %107 = sext i32 %106 to i64
  %108 = getelementptr inbounds [256 x [256 x i8]], ptr @mul8table, i64 0, i64 %107
  %109 = load i32, ptr %37, align 4
  %110 = sext i32 %109 to i64
  %111 = getelementptr inbounds [256 x i8], ptr %108, i64 0, i64 %110
  %112 = load i8, ptr %111, align 1
  %113 = zext i8 %112 to i32
  store i32 %113, ptr %37, align 4
  %114 = load i32, ptr %36, align 4
  %115 = sext i32 %114 to i64
  %116 = getelementptr inbounds [256 x [256 x i8]], ptr @mul8table, i64 0, i64 %115
  %117 = load i32, ptr %38, align 4
  %118 = sext i32 %117 to i64
  %119 = getelementptr inbounds [256 x i8], ptr %116, i64 0, i64 %118
  %120 = load i8, ptr %119, align 1
  %121 = zext i8 %120 to i32
  store i32 %121, ptr %38, align 4
  %122 = load i32, ptr %36, align 4
  %123 = sext i32 %122 to i64
  %124 = getelementptr inbounds [256 x [256 x i8]], ptr @mul8table, i64 0, i64 %123
  %125 = load i32, ptr %39, align 4
  %126 = sext i32 %125 to i64
  %127 = getelementptr inbounds [256 x i8], ptr %124, i64 0, i64 %126
  %128 = load i8, ptr %127, align 1
  %129 = zext i8 %128 to i32
  store i32 %129, ptr %39, align 4
  %130 = load i32, ptr %36, align 4
  %131 = shl i32 %130, 8
  %132 = load i32, ptr %37, align 4
  %133 = or i32 %131, %132
  %134 = shl i32 %133, 8
  %135 = load i32, ptr %38, align 4
  %136 = or i32 %134, %135
  %137 = shl i32 %136, 8
  %138 = load i32, ptr %39, align 4
  %139 = or i32 %137, %138
  %140 = load ptr, ptr %29, align 8
  %141 = getelementptr inbounds i32, ptr %140, i64 0
  store i32 %139, ptr %141, align 4
  br label %142

142:                                              ; preds = %105, %88
  br label %143

143:                                              ; preds = %142
  br label %144

144:                                              ; preds = %143
  %145 = load ptr, ptr %29, align 8
  %146 = ptrtoint ptr %145 to i64
  %147 = add nsw i64 %146, 4
  %148 = inttoptr i64 %147 to ptr
  store ptr %148, ptr %29, align 8
  %149 = load i32, ptr %20, align 4
  %150 = load i32, ptr %33, align 4
  %151 = add nsw i32 %150, %149
  store i32 %151, ptr %33, align 4
  br label %152

152:                                              ; preds = %144
  %153 = load i32, ptr %32, align 4
  %154 = add i32 %153, -1
  store i32 %154, ptr %32, align 4
  %155 = icmp ugt i32 %154, 0
  br i1 %155, label %69, label %156, !llvm.loop !29

156:                                              ; preds = %152
  %157 = load ptr, ptr %29, align 8
  %158 = ptrtoint ptr %157 to i64
  %159 = load i32, ptr %31, align 4
  %160 = sext i32 %159 to i64
  %161 = add nsw i64 %158, %160
  %162 = inttoptr i64 %161 to ptr
  store ptr %162, ptr %29, align 8
  %163 = load i32, ptr %21, align 4
  %164 = load i32, ptr %19, align 4
  %165 = add nsw i32 %164, %163
  store i32 %165, ptr %19, align 4
  br label %166

166:                                              ; preds = %156
  %167 = load i32, ptr %17, align 4
  %168 = add i32 %167, -1
  store i32 %168, ptr %17, align 4
  %169 = icmp ugt i32 %168, 0
  br i1 %169, label %55, label %170, !llvm.loop !30

170:                                              ; preds = %166
  br label %171

171:                                              ; preds = %170
  ret void
}