; Function Attrs: nofree norecurse nosync nounwind memory(readwrite, inaccessiblemem: none) uwtable
define hidden void @ByteIndexedToIntArgbPreScaleConvert(ptr noundef %0, ptr noundef %1, i32 noundef %2, i32 noundef %3, i32 noundef %4, i32 noundef %5, i32 noundef %6, i32 noundef %7, i32 noundef %8, ptr nocapture noundef readonly %9, ptr nocapture noundef readonly %10, ptr nocapture readnone %11, ptr nocapture readnone %12) #1 {
  %14 = getelementptr inbounds i8, ptr %9, i64 40
  %15 = load ptr, ptr %14, align 8
  %16 = getelementptr inbounds i8, ptr %9, i64 32
  %17 = load i32, ptr %16, align 8
  %18 = getelementptr inbounds i8, ptr %10, i64 32
  %19 = load i32, ptr %18, align 8
  %20 = shl i32 %2, 2
  %21 = sub i32 %19, %20
  %22 = sext i32 %21 to i64
  %23 = ptrtoint ptr %0 to i64
  %24 = sext i32 %17 to i64
  br label %25

25:                                               ; preds = %72, %13
  %.044 = phi ptr [ %1, %13 ], [ %74, %72 ]
  %.043 = phi i32 [ %5, %13 ], [ %75, %72 ]
  %.0 = phi i32 [ %3, %13 ], [ %76, %72 ]
  %26 = ashr i32 %.043, %8
  %27 = sext i32 %26 to i64
  %28 = mul nsw i64 %27, %24
  %29 = add nsw i64 %28, %23
  %30 = inttoptr i64 %29 to ptr
  br label %31

31:                                               ; preds = %66, %25
  %.046 = phi i32 [ %4, %25 ], [ %70, %66 ]
  %.045 = phi i32 [ %2, %25 ], [ %71, %66 ]
  %.1 = phi ptr [ %.044, %25 ], [ %69, %66 ]
  %32 = ashr i32 %.046, %8
  %33 = sext i32 %32 to i64
  %34 = getelementptr inbounds i8, ptr %30, i64 %33
  %35 = load i8, ptr %34, align 1
  %36 = zext i8 %35 to i64
  %37 = getelementptr inbounds i32, ptr %15, i64 %36
  %38 = load i32, ptr %37, align 4
  %39 = icmp ugt i32 %38, -16777217
  br i1 %39, label %66, label %40

40:                                               ; preds = %31
  %41 = and i32 %38, 255
  %42 = lshr i32 %38, 8
  %43 = and i32 %42, 255
  %44 = lshr i32 %38, 16
  %45 = and i32 %44, 255
  %46 = lshr i32 %38, 24
  %47 = zext nneg i32 %46 to i64
  %48 = zext nneg i32 %45 to i64
  %49 = getelementptr inbounds [256 x [256 x i8]], ptr @mul8table, i64 0, i64 %47, i64 %48
  %50 = load i8, ptr %49, align 1
  %51 = zext i8 %50 to i32
  %52 = zext nneg i32 %43 to i64
  %53 = getelementptr inbounds [256 x [256 x i8]], ptr @mul8table, i64 0, i64 %47, i64 %52
  %54 = load i8, ptr %53, align 1
  %55 = zext i8 %54 to i32
  %56 = zext nneg i32 %41 to i64
  %57 = getelementptr inbounds [256 x [256 x i8]], ptr @mul8table, i64 0, i64 %47, i64 %56
  %58 = load i8, ptr %57, align 1
  %59 = zext i8 %58 to i32
  %60 = shl nuw nsw i32 %46, 16
  %61 = shl nuw nsw i32 %51, 8
  %62 = or disjoint i32 %61, %60
  %63 = or disjoint i32 %62, %55
  %64 = shl nuw i32 %63, 8
  %65 = or disjoint i32 %64, %59
  br label %66

66:                                               ; preds = %31, %40
  %storemerge = phi i32 [ %65, %40 ], [ %38, %31 ]
  store i32 %storemerge, ptr %.1, align 4
  %67 = ptrtoint ptr %.1 to i64
  %68 = add nsw i64 %67, 4
  %69 = inttoptr i64 %68 to ptr
  %70 = add nsw i32 %.046, %6
  %71 = add i32 %.045, -1
  %.not = icmp eq i32 %71, 0
  br i1 %.not, label %72, label %31, !llvm.loop !29

72:                                               ; preds = %66
  %73 = add nsw i64 %68, %22
  %74 = inttoptr i64 %73 to ptr
  %75 = add nsw i32 %.043, %7
  %76 = add i32 %.0, -1
  %.not49 = icmp eq i32 %76, 0
  br i1 %.not49, label %77, label %25, !llvm.loop !30

77:                                               ; preds = %72
  ret void
}